(lp0
ccopy_reg
_reconstructor
p1
(c__main__
Recipe
p2
c__builtin__
object
p3
Ntp4
Rp5
(dp6
S'ings'
p7
(dp8
S'Noodles'
p9
(dp10
S'amount'
p11
F5.0
sS'unit'
p12
S'cups'
p13
ssS'Hamburger'
p14
(dp15
g11
F2.0
sg12
g13
ssS'Oil'
p16
(dp17
g11
F0.1875
sg12
S'tbsp'
p18
ssS'Tomatoes'
p19
(dp20
g11
F3.0
sg12
g13
sssS'ing_count'
p21
I4
sS'name'
p22
S'Pasta'
p23
sbag1
(g2
g3
Ntp24
Rp25
(dp26
g7
(dp27
S'Butter'
p28
(dp29
S'amount'
p30
F0.1875
sS'unit'
p31
S'tbsp'
p32
ssS'Flour'
p33
(dp34
g30
F3.0
sg31
S'cups'
p35
ssS'Salt'
p36
(dp37
g30
F0.03125
sg31
S'tsp'
p38
ssS'Milk'
p39
(dp40
g30
F0.5
sg31
g35
ssS'Yeast'
p41
(dp42
g30
F0.03125
sg31
g38
sssg22
S'Bread'
p43
sg21
I5
sba.